; Function Attrs: nounwind uwtable
define range(i32 -1, 1) i32 @H5E__print(ptr noundef %0, ptr noundef %1, i1 noundef zeroext %2) local_unnamed_addr #0 {
  %4 = alloca %struct.H5E_print_t, align 8
  %5 = alloca %struct.H5E_walk_op_t, align 8
  call void @llvm.lifetime.start.p0(i64 40, ptr nonnull %4) #16
  call void @llvm.lifetime.start.p0(i64 16, ptr nonnull %5) #16
  %6 = load i8, ptr @H5E_init_g, align 1, !tbaa !3, !range !7, !noundef !8
  %7 = trunc nuw i8 %6 to i1
  %8 = load i8, ptr @H5_libterm_g, align 1, !range !7
  %9 = trunc nuw i8 %8 to i1
  %10 = xor i1 %9, true
  %11 = select i1 %7, i1 true, i1 %10
  br i1 %11, label %12, label %25, !prof !9

12:                                               ; preds = %3
  %.not = icmp eq ptr %1, null
  %13 = load ptr, ptr @stderr, align 8
  %storemerge = select i1 %.not, ptr %13, ptr %1
  store ptr %storemerge, ptr %4, align 8, !tbaa !63
  %14 = getelementptr inbounds nuw i8, ptr %4, i64 8
  call void @llvm.memset.p0.i64(ptr noundef nonnull align 8 dereferenceable(32) %14, i8 0, i64 32, i1 false)
  %15 = getelementptr inbounds nuw i8, ptr %5, i64 8
  br i1 %2, label %16, label %19

16:                                               ; preds = %12
  store i32 1, ptr %5, align 8, !tbaa !66
  store ptr @H5E__walk1_cb, ptr %15, align 8, !tbaa !33
  %17 = call i32 @H5E__walk(ptr noundef %0, i32 noundef 1, ptr noundef nonnull %5, ptr noundef nonnull %4)
  %18 = icmp slt i32 %17, 0
  br i1 %18, label %.sink.split, label %25

19:                                               ; preds = %12
  store i32 2, ptr %5, align 8, !tbaa !66
  store ptr @H5E__walk2_cb, ptr %15, align 8, !tbaa !33
  %20 = call i32 @H5E__walk(ptr noundef %0, i32 noundef 1, ptr noundef nonnull %5, ptr noundef nonnull %4)
  %21 = icmp slt i32 %20, 0
  br i1 %21, label %.sink.split, label %25

.sink.split:                                      ; preds = %19, %16
  %.sink = phi i32 [ 1288, %16 ], [ 1297, %19 ]
  %22 = load i64, ptr @H5E_ERROR_g, align 8, !tbaa !10
  %23 = load i64, ptr @H5E_CANTLIST_g, align 8, !tbaa !10
  %24 = call i32 (ptr, ptr, i32, i64, i64, ptr, ...) @H5E_printf_stack(ptr noundef nonnull @.str.1, ptr noundef nonnull @__func__.H5E__print, i32 noundef %.sink, i64 noundef %22, i64 noundef %23, ptr noundef nonnull @.str.13)
  br label %25

25:                                               ; preds = %.sink.split, %19, %16, %3
  %.0 = phi i32 [ 0, %16 ], [ 0, %19 ], [ 0, %3 ], [ -1, %.sink.split ]
  call void @llvm.lifetime.end.p0(i64 16, ptr nonnull %5) #16
  call void @llvm.lifetime.end.p0(i64 40, ptr nonnull %4) #16
  ret i32 %.0
}